target datalayout = "e-m:e-p270:32:32-p271:32:32-p272:64:64-i64:64-i128:128-f80:128-n8:16:32:64-S128"
target triple = "x86_64-pc-linux-gnu"

%"class.icu_77::EraRules" = type { %"class.icu_77::LocalMemory", i32, i32 }
%"class.icu_77::LocalMemory" = type { %"class.icu_77::LocalPointerBase" }
%"class.icu_77::LocalPointerBase" = type { ptr }

@_ZL17gJapaneseEraRules = internal global ptr null, align 8

; Function Attrs: inlinehint mustprogress nounwind uwtable
define linkonce_odr noundef i32 @_ZNK6icu_778EraRules15getNumberOfErasEv(ptr noundef nonnull align 8 dereferenceable(16) %0) #5 comdat align 2 {
  %2 = alloca ptr, align 8
  store ptr %0, ptr %2, align 8, !tbaa !20
  %3 = load ptr, ptr %2, align 8
  %4 = getelementptr inbounds nuw %"class.icu_77::EraRules", ptr %3, i32 0, i32 1
  %5 = load i32, ptr %4, align 8, !tbaa !28
  ret i32 %5
}

; Function Attrs: inlinehint mustprogress nounwind uwtable
define internal noundef signext i8 @_ZL9U_FAILURE10UErrorCode(i32 noundef %0) #5 {
  %2 = alloca i32, align 4
  store i32 %0, ptr %2, align 4, !tbaa !18
  %3 = load i32, ptr %2, align 4, !tbaa !18
  %4 = icmp sgt i32 %3, 0
  %5 = zext i1 %4 to i8
  ret i8 %5
}

; Function Attrs: mustprogress uwtable
define noundef i32 @_ZNK6icu_7716JapaneseCalendar16getActualMaximumE19UCalendarDateFieldsR10UErrorCode(ptr noundef nonnull align 8 dereferenceable(222) %0, i32 noundef %1, ptr noundef nonnull align 4 dereferenceable(4) %2) unnamed_addr #1 align 2 {
  %4 = alloca i32, align 4
  %5 = alloca ptr, align 8
  %6 = alloca i32, align 4
  %7 = alloca ptr, align 8
  %8 = alloca i32, align 4
  %9 = alloca i32, align 4
  %10 = alloca [3 x i32], align 4
  %11 = alloca i32, align 4
  %12 = alloca i32, align 4
  %13 = alloca i32, align 4
  %14 = alloca i32, align 4
  %15 = alloca i32, align 4
  store ptr %0, ptr %5, align 8, !tbaa !3
  store i32 %1, ptr %6, align 4, !tbaa !24
  store ptr %2, ptr %7, align 8, !tbaa !15
  %16 = load ptr, ptr %5, align 8
  %17 = load i32, ptr %6, align 4, !tbaa !24
  %18 = icmp ne i32 %17, 1
  br i1 %18, label %19, label %23

19:                                               ; preds = %3
  %20 = load i32, ptr %6, align 4, !tbaa !24
  %21 = load ptr, ptr %7, align 8, !tbaa !15
  %22 = call noundef i32 @_ZNK6icu_7717GregorianCalendar16getActualMaximumE19UCalendarDateFieldsR10UErrorCode(ptr noundef nonnull align 8 dereferenceable(222) %16, i32 noundef %20, ptr noundef nonnull align 4 dereferenceable(4) %21)
  store i32 %22, ptr %4, align 4
  br label %72

23:                                               ; preds = %3
  call void @llvm.lifetime.start.p0(i64 4, ptr %8) #10
  %24 = load ptr, ptr %7, align 8, !tbaa !15
  %25 = call noundef i32 @_ZNK6icu_778Calendar3getE19UCalendarDateFieldsR10UErrorCode(ptr noundef nonnull align 8 dereferenceable(192) %16, i32 noundef 0, ptr noundef nonnull align 4 dereferenceable(4) %24)
  store i32 %25, ptr %8, align 4, !tbaa !11
  %26 = load ptr, ptr %7, align 8, !tbaa !15
  %27 = load i32, ptr %26, align 4, !tbaa !18
  %28 = call noundef signext i8 @_ZL9U_FAILURE10UErrorCode(i32 noundef %27)
  %29 = icmp ne i8 %28, 0
  br i1 %29, label %30, label %31

30:                                               ; preds = %23
  store i32 0, ptr %4, align 4
  store i32 1, ptr %9, align 4
  br label %71

31:                                               ; preds = %23
  %32 = load i32, ptr %8, align 4, !tbaa !11
  %33 = load ptr, ptr @_ZL17gJapaneseEraRules, align 8, !tbaa !20
  %34 = call noundef i32 @_ZNK6icu_778EraRules15getNumberOfErasEv(ptr noundef nonnull align 8 dereferenceable(16) %33)
  %35 = sub nsw i32 %34, 1
  %36 = icmp eq i32 %32, %35
  br i1 %36, label %37, label %42

37:                                               ; preds = %31
  %38 = load ptr, ptr %16, align 8, !tbaa !16
  %39 = getelementptr inbounds ptr, ptr %38, i64 37
  %40 = load ptr, ptr %39, align 8
  %41 = call noundef i32 %40(ptr noundef nonnull align 8 dereferenceable(222) %16, i32 noundef 1, i32 noundef 3)
  store i32 %41, ptr %4, align 4
  store i32 1, ptr %9, align 4
  br label %71

42:                                               ; preds = %31
  call void @llvm.lifetime.start.p0(i64 12, ptr %10) #10
  call void @llvm.memset.p0.i64(ptr align 4 %10, i8 0, i64 12, i1 false)
  %43 = load ptr, ptr @_ZL17gJapaneseEraRules, align 8, !tbaa !20
  %44 = load i32, ptr %8, align 4, !tbaa !11
  %45 = add nsw i32 %44, 1
  %46 = load ptr, ptr %7, align 8, !tbaa !15
  call void @_ZNK6icu_778EraRules12getStartDateEiRA3_iR10UErrorCode(ptr noundef nonnull align 8 dereferenceable(16) %43, i32 noundef %45, ptr noundef nonnull align 4 dereferenceable(12) %10, ptr noundef nonnull align 4 dereferenceable(4) %46)
  call void @llvm.lifetime.start.p0(i64 4, ptr %11) #10
  %47 = getelementptr inbounds [3 x i32], ptr %10, i64 0, i64 0
  %48 = load i32, ptr %47, align 4, !tbaa !11
  store i32 %48, ptr %11, align 4, !tbaa !11
  call void @llvm.lifetime.start.p0(i64 4, ptr %12) #10
  %49 = getelementptr inbounds [3 x i32], ptr %10, i64 0, i64 1
  %50 = load i32, ptr %49, align 4, !tbaa !11
  store i32 %50, ptr %12, align 4, !tbaa !11
  call void @llvm.lifetime.start.p0(i64 4, ptr %13) #10
  %51 = getelementptr inbounds [3 x i32], ptr %10, i64 0, i64 2
  %52 = load i32, ptr %51, align 4, !tbaa !11
  store i32 %52, ptr %13, align 4, !tbaa !11
  call void @llvm.lifetime.start.p0(i64 4, ptr %14) #10
  %53 = load ptr, ptr @_ZL17gJapaneseEraRules, align 8, !tbaa !20
  %54 = load i32, ptr %8, align 4, !tbaa !11
  %55 = load ptr, ptr %7, align 8, !tbaa !15
  %56 = call noundef i32 @_ZNK6icu_778EraRules12getStartYearEiR10UErrorCode(ptr noundef nonnull align 8 dereferenceable(16) %53, i32 noundef %54, ptr noundef nonnull align 4 dereferenceable(4) %55)
  store i32 %56, ptr %14, align 4, !tbaa !11
  call void @llvm.lifetime.start.p0(i64 4, ptr %15) #10
  %57 = load i32, ptr %11, align 4, !tbaa !11
  %58 = load i32, ptr %14, align 4, !tbaa !11
  %59 = sub nsw i32 %57, %58
  %60 = add nsw i32 %59, 1
  store i32 %60, ptr %15, align 4, !tbaa !11
  %61 = load i32, ptr %12, align 4, !tbaa !11
  %62 = icmp eq i32 %61, 1
  br i1 %62, label %63, label %69

63:                                               ; preds = %42
  %64 = load i32, ptr %13, align 4, !tbaa !11
  %65 = icmp eq i32 %64, 1
  br i1 %65, label %66, label %69

66:                                               ; preds = %63
  %67 = load i32, ptr %15, align 4, !tbaa !11
  %68 = add nsw i32 %67, -1
  store i32 %68, ptr %15, align 4, !tbaa !11
  br label %69

69:                                               ; preds = %66, %63, %42
  %70 = load i32, ptr %15, align 4, !tbaa !11
  store i32 %70, ptr %4, align 4
  store i32 1, ptr %9, align 4
  call void @llvm.lifetime.end.p0(i64 4, ptr %15) #10
  call void @llvm.lifetime.end.p0(i64 4, ptr %14) #10
  call void @llvm.lifetime.end.p0(i64 4, ptr %13) #10
  call void @llvm.lifetime.end.p0(i64 4, ptr %12) #10
  call void @llvm.lifetime.end.p0(i64 4, ptr %11) #10
  call void @llvm.lifetime.end.p0(i64 12, ptr %10) #10
  br label %71

71:                                               ; preds = %69, %37, %30
  call void @llvm.lifetime.end.p0(i64 4, ptr %8) #10
  br label %72

72:                                               ; preds = %71, %19
  %73 = load i32, ptr %4, align 4
  ret i32 %73
}