; Function Attrs: mustprogress uwtable
define noundef i32 @_ZNK6icu_7716JapaneseCalendar16getActualMaximumE19UCalendarDateFieldsR10UErrorCode(ptr noundef nonnull align 8 dereferenceable(222) %0, i32 noundef %1, ptr noundef nonnull align 4 dereferenceable(4) %2) unnamed_addr #1 align 2 {
  %4 = alloca [3 x i32], align 4
  %.not = icmp eq i32 %1, 1
  br i1 %.not, label %7, label %5

5:                                                ; preds = %3
  %6 = tail call noundef i32 @_ZNK6icu_7717GregorianCalendar16getActualMaximumE19UCalendarDateFieldsR10UErrorCode(ptr noundef nonnull align 8 dereferenceable(222) %0, i32 noundef %1, ptr noundef nonnull align 4 dereferenceable(4) %2)
  br label %35

7:                                                ; preds = %3
  %8 = tail call noundef i32 @_ZNK6icu_778Calendar3getE19UCalendarDateFieldsR10UErrorCode(ptr noundef nonnull align 8 dereferenceable(192) %0, i32 noundef 0, ptr noundef nonnull align 4 dereferenceable(4) %2)
  %9 = load i32, ptr %2, align 4, !tbaa !9
  %10 = icmp slt i32 %9, 1
  br i1 %10, label %11, label %35

11:                                               ; preds = %7
  %12 = load ptr, ptr @_ZL17gJapaneseEraRules, align 8, !tbaa !11
  %13 = getelementptr inbounds nuw i8, ptr %12, i64 8
  %14 = load i32, ptr %13, align 8, !tbaa !24
  %15 = add nsw i32 %14, -1
  %16 = icmp eq i32 %8, %15
  br i1 %16, label %17, label %22

17:                                               ; preds = %11
  %18 = load ptr, ptr %0, align 8, !tbaa !7
  %19 = getelementptr inbounds nuw i8, ptr %18, i64 296
  %20 = load ptr, ptr %19, align 8
  %21 = tail call noundef i32 %20(ptr noundef nonnull align 8 dereferenceable(222) %0, i32 noundef 1, i32 noundef 3)
  br label %35

22:                                               ; preds = %11
  call void @llvm.lifetime.start.p0(i64 12, ptr nonnull %4) #10
  call void @llvm.memset.p0.i64(ptr noundef nonnull align 4 dereferenceable(12) %4, i8 0, i64 12, i1 false)
  %23 = add nsw i32 %8, 1
  call void @_ZNK6icu_778EraRules12getStartDateEiRA3_iR10UErrorCode(ptr noundef nonnull align 8 dereferenceable(16) %12, i32 noundef %23, ptr noundef nonnull align 4 dereferenceable(12) %4, ptr noundef nonnull align 4 dereferenceable(4) %2)
  %24 = load i32, ptr %4, align 4, !tbaa !3
  %25 = getelementptr inbounds nuw i8, ptr %4, i64 4
  %26 = load i32, ptr %25, align 4, !tbaa !3
  %27 = getelementptr inbounds nuw i8, ptr %4, i64 8
  %28 = load i32, ptr %27, align 4, !tbaa !3
  %29 = load ptr, ptr @_ZL17gJapaneseEraRules, align 8, !tbaa !11
  %30 = call noundef i32 @_ZNK6icu_778EraRules12getStartYearEiR10UErrorCode(ptr noundef nonnull align 8 dereferenceable(16) %29, i32 noundef %8, ptr noundef nonnull align 4 dereferenceable(4) %2)
  %31 = sub i32 %24, %30
  %32 = icmp ne i32 %26, 1
  %33 = icmp ne i32 %28, 1
  %or.cond.not = select i1 %32, i1 true, i1 %33
  %34 = zext i1 %or.cond.not to i32
  %spec.select = add nsw i32 %31, %34
  call void @llvm.lifetime.end.p0(i64 12, ptr nonnull %4) #10
  br label %35

35:                                               ; preds = %17, %22, %7, %5
  %.018 = phi i32 [ %6, %5 ], [ %21, %17 ], [ %spec.select, %22 ], [ 0, %7 ]
  ret i32 %.018
}